; Function Attrs: mustprogress nofree norecurse nosync nounwind null_pointer_is_valid sspstrong willreturn memory(read, inaccessiblemem: none) uwtable
define ptr @wtap_default_file_extension(i32 noundef %0) local_unnamed_addr #2 {
  %2 = icmp slt i32 %0, 0
  br i1 %2, label %12, label %3

3:                                                ; preds = %1
  %4 = load ptr, ptr @file_type_subtype_table_arr, align 8
  %5 = getelementptr inbounds nuw i8, ptr %4, i64 8
  %6 = load i32, ptr %5, align 8
  %.not = icmp slt i32 %0, %6
  br i1 %.not, label %7, label %12

7:                                                ; preds = %3
  %8 = load ptr, ptr @file_type_subtype_table, align 8
  %9 = zext nneg i32 %0 to i64
  %10 = getelementptr %struct.file_type_subtype_info, ptr %8, i64 %9, i32 2
  %11 = load ptr, ptr %10, align 8
  br label %12

12:                                               ; preds = %1, %3, %7
  %.0 = phi ptr [ %11, %7 ], [ null, %3 ], [ null, %1 ]
  ret ptr %.0
}